target datalayout = "e-m:e-p270:32:32-p271:32:32-p272:64:64-i64:64-i128:128-f80:128-n8:16:32:64-S128"
target triple = "x86_64-pc-linux-gnu"

%struct.AVFilterContext = type { ptr, ptr, ptr, ptr, ptr, i32, ptr, ptr, i32, ptr, ptr, i32, i32, ptr, ptr, ptr, ptr, i32, ptr, i32, i32 }
%struct.SelectContext = type { ptr, ptr, ptr, [40 x double], i32, i32, [4 x i64], [4 x i64], i32, ptr, double, ptr, double, i32, i32 }

@.str.22 = private unnamed_addr constant [46 x i8] c"Scene detection is ignored in aselect filter\0A\00", align 1

; Function Attrs: cold nounwind optsize uwtable
define internal i32 @aselect_init(ptr noundef %0) #0 {
  %2 = alloca i32, align 4
  %3 = alloca ptr, align 8
  %4 = alloca ptr, align 8
  %5 = alloca i32, align 4
  %6 = alloca i32, align 4
  store ptr %0, ptr %3, align 8, !tbaa !4
  call void @llvm.lifetime.start.p0(i64 8, ptr %4) #12
  %7 = load ptr, ptr %3, align 8, !tbaa !4
  %8 = getelementptr inbounds nuw %struct.AVFilterContext, ptr %7, i32 0, i32 9
  %9 = load ptr, ptr %8, align 8, !tbaa !9
  store ptr %9, ptr %4, align 8, !tbaa !22
  call void @llvm.lifetime.start.p0(i64 4, ptr %5) #12
  %10 = load ptr, ptr %3, align 8, !tbaa !4
  %11 = call i32 @init(ptr noundef %10) #13
  store i32 %11, ptr %5, align 4, !tbaa !24
  %12 = icmp slt i32 %11, 0
  br i1 %12, label %13, label %15

13:                                               ; preds = %1
  %14 = load i32, ptr %5, align 4, !tbaa !24
  store i32 %14, ptr %2, align 4
  store i32 1, ptr %6, align 4
  br label %23

15:                                               ; preds = %1
  %16 = load ptr, ptr %4, align 8, !tbaa !22
  %17 = getelementptr inbounds nuw %struct.SelectContext, ptr %16, i32 0, i32 8
  %18 = load i32, ptr %17, align 8, !tbaa !25
  %19 = icmp ne i32 %18, 0
  br i1 %19, label %20, label %22

20:                                               ; preds = %15
  %21 = load ptr, ptr %3, align 8, !tbaa !4
  call void (ptr, i32, ptr, ...) @av_log(ptr noundef %21, i32 noundef 16, ptr noundef @.str.22)
  store i32 -22, ptr %2, align 4
  store i32 1, ptr %6, align 4
  br label %23

22:                                               ; preds = %15
  store i32 0, ptr %2, align 4
  store i32 1, ptr %6, align 4
  br label %23

23:                                               ; preds = %22, %20, %13
  call void @llvm.lifetime.end.p0(i64 4, ptr %5) #12
  call void @llvm.lifetime.end.p0(i64 8, ptr %4) #12
  %24 = load i32, ptr %2, align 4
  ret i32 %24
}