; Function Attrs: cold nounwind optsize uwtable
define internal range(i32 -2147483648, 1) i32 @aselect_init(ptr noundef %0) #0 {
  %2 = getelementptr inbounds nuw i8, ptr %0, i64 72
  %3 = load ptr, ptr %2, align 8, !tbaa !4
  %4 = tail call fastcc i32 @init(ptr noundef %0) #10
  %5 = icmp slt i32 %4, 0
  br i1 %5, label %10, label %6

6:                                                ; preds = %1
  %7 = getelementptr inbounds nuw i8, ptr %3, i64 416
  %8 = load i32, ptr %7, align 8, !tbaa !20
  %.not = icmp eq i32 %8, 0
  br i1 %.not, label %10, label %9

9:                                                ; preds = %6
  tail call void (ptr, i32, ptr, ...) @av_log(ptr noundef nonnull %0, i32 noundef 16, ptr noundef nonnull @.str.22) #11
  br label %10

10:                                               ; preds = %6, %1, %9
  %.0 = phi i32 [ -22, %9 ], [ %4, %1 ], [ 0, %6 ]
  ret i32 %.0
}